; ModuleID = 'source-C-CXX/26/1287.c'
source_filename = "source-C-CXX/26/1287.c"
target datalayout = "e-m:e-p270:32:32-p271:32:32-p272:64:64-i64:64-f80:128-n8:16:32:64-S128"
target triple = "x86_64-pc-linux-gnu"

%struct.f = type { double, double, double, double, double }

@.str = private unnamed_addr constant [4 x i8] c"%d\0A\00", align 1
@.str.1 = private unnamed_addr constant [12 x i8] c"%lf %lf %lf\00", align 1
@.str.2 = private unnamed_addr constant [17 x i8] c"x1=%.5f;x2=%.5f\0A\00", align 1
@.str.3 = private unnamed_addr constant [12 x i8] c"x1=x2=%.5f\0A\00", align 1
@.str.4 = private unnamed_addr constant [29 x i8] c"x1=%.5f+%.5fi;x2=%.5f-%.5fi\0A\00", align 1

; Function Attrs: nofree nounwind sspstrong uwtable
define dso_local i32 @main() local_unnamed_addr #0 {
  %1 = alloca i32, align 4
  %2 = alloca double, align 8
  %3 = alloca double, align 8
  %4 = alloca double, align 8
  %5 = alloca [100 x %struct.f], align 16
  %6 = bitcast i32* %1 to i8*
  call void @llvm.lifetime.start.p0i8(i64 4, i8* nonnull %6) #5
  %7 = bitcast double* %2 to i8*
  call void @llvm.lifetime.start.p0i8(i64 8, i8* nonnull %7) #5
  %8 = bitcast double* %3 to i8*
  call void @llvm.lifetime.start.p0i8(i64 8, i8* nonnull %8) #5
  %9 = bitcast double* %4 to i8*
  call void @llvm.lifetime.start.p0i8(i64 8, i8* nonnull %9) #5
  %10 = bitcast [100 x %struct.f]* %5 to i8*
  call void @llvm.lifetime.start.p0i8(i64 4000, i8* nonnull %10) #5
  %11 = call i32 (i8*, ...) @__isoc99_scanf(i8* getelementptr inbounds ([4 x i8], [4 x i8]* @.str, i64 0, i64 0), i32* nonnull %1)
  %12 = load i32, i32* %1, align 4, !tbaa !5
  %13 = icmp sgt i32 %12, 0
  br i1 %13, label %16, label %84

14:                                               ; preds = %16
  %15 = icmp sgt i32 %42, 0
  br i1 %15, label %45, label %84

16:                                               ; preds = %0, %16
  %17 = phi i64 [ %41, %16 ], [ 0, %0 ]
  %18 = call i32 (i8*, ...) @__isoc99_scanf(i8* getelementptr inbounds ([12 x i8], [12 x i8]* @.str.1, i64 0, i64 0), double* nonnull %2, double* nonnull %3, double* nonnull %4)
  %19 = load double, double* %2, align 8, !tbaa !9
  %20 = getelementptr inbounds [100 x %struct.f], [100 x %struct.f]* %5, i64 0, i64 %17, i32 0
  store double %19, double* %20, align 8, !tbaa !11
  %21 = load double, double* %3, align 8, !tbaa !9
  %22 = getelementptr inbounds [100 x %struct.f], [100 x %struct.f]* %5, i64 0, i64 %17, i32 1
  store double %21, double* %22, align 8, !tbaa !13
  %23 = load double, double* %4, align 8, !tbaa !9
  %24 = getelementptr inbounds [100 x %struct.f], [100 x %struct.f]* %5, i64 0, i64 %17, i32 2
  store double %23, double* %24, align 8, !tbaa !14
  %25 = fneg double %21
  %26 = fmul double %19, 2.000000e+00
  %27 = fdiv double %25, %26
  %28 = getelementptr inbounds [100 x %struct.f], [100 x %struct.f]* %5, i64 0, i64 %17, i32 3
  %29 = fcmp oeq double %21, 0.000000e+00
  %30 = select i1 %29, double 0.000000e+00, double %27
  store double %30, double* %28, align 8, !tbaa !15
  %31 = fmul double %21, %21
  %32 = fmul double %19, 4.000000e+00
  %33 = fmul double %32, %23
  %34 = fsub double %31, %33
  %35 = call double @llvm.fabs.f64(double %34)
  %36 = call double @sqrt(double %35) #5
  %37 = load double, double* %2, align 8, !tbaa !9
  %38 = fmul double %37, 2.000000e+00
  %39 = fdiv double %36, %38
  %40 = getelementptr inbounds [100 x %struct.f], [100 x %struct.f]* %5, i64 0, i64 %17, i32 4
  store double %39, double* %40, align 8, !tbaa !16
  %41 = add nuw nsw i64 %17, 1
  %42 = load i32, i32* %1, align 4, !tbaa !5
  %43 = sext i32 %42 to i64
  %44 = icmp slt i64 %41, %43
  br i1 %44, label %16, label %14, !llvm.loop !17

45:                                               ; preds = %14, %79
  %46 = phi i64 [ %80, %79 ], [ 0, %14 ]
  %47 = getelementptr inbounds [100 x %struct.f], [100 x %struct.f]* %5, i64 0, i64 %46, i32 1
  %48 = getelementptr inbounds [100 x %struct.f], [100 x %struct.f]* %5, i64 0, i64 %46, i32 0
  %49 = load double, double* %48, align 8, !tbaa !11
  %50 = fmul double %49, 4.000000e+00
  %51 = bitcast double* %47 to <2 x double>*
  %52 = load <2 x double>, <2 x double>* %51, align 8, !tbaa !9
  %53 = insertelement <2 x double> %52, double %50, i32 1
  %54 = fmul <2 x double> %52, %53
  %55 = shufflevector <2 x double> %54, <2 x double> poison, <2 x i32> <i32 1, i32 undef>
  %56 = fsub <2 x double> %54, %55
  %57 = extractelement <2 x double> %56, i32 0
  %58 = fcmp ogt double %57, 0.000000e+00
  br i1 %58, label %59, label %67

59:                                               ; preds = %45
  %60 = getelementptr inbounds [100 x %struct.f], [100 x %struct.f]* %5, i64 0, i64 %46, i32 3
  %61 = load double, double* %60, align 8, !tbaa !15
  %62 = getelementptr inbounds [100 x %struct.f], [100 x %struct.f]* %5, i64 0, i64 %46, i32 4
  %63 = load double, double* %62, align 8, !tbaa !16
  %64 = fadd double %61, %63
  %65 = fsub double %61, %63
  %66 = call i32 (i8*, ...) @printf(i8* nonnull dereferenceable(1) getelementptr inbounds ([17 x i8], [17 x i8]* @.str.2, i64 0, i64 0), double %64, double %65)
  br label %79

67:                                               ; preds = %45
  %68 = fcmp oeq double %57, 0.000000e+00
  %69 = getelementptr inbounds [100 x %struct.f], [100 x %struct.f]* %5, i64 0, i64 %46, i32 3
  %70 = load double, double* %69, align 8, !tbaa !15
  %71 = getelementptr inbounds [100 x %struct.f], [100 x %struct.f]* %5, i64 0, i64 %46, i32 4
  %72 = load double, double* %71, align 8, !tbaa !16
  br i1 %68, label %73, label %77

73:                                               ; preds = %67
  %74 = fadd double %70, %72
  %75 = fsub double %70, %72
  %76 = call i32 (i8*, ...) @printf(i8* nonnull dereferenceable(1) getelementptr inbounds ([12 x i8], [12 x i8]* @.str.3, i64 0, i64 0), double %74, double %75)
  br label %79

77:                                               ; preds = %67
  %78 = call i32 (i8*, ...) @printf(i8* nonnull dereferenceable(1) getelementptr inbounds ([29 x i8], [29 x i8]* @.str.4, i64 0, i64 0), double %70, double %72, double %70, double %72)
  br label %79

79:                                               ; preds = %59, %77, %73
  %80 = add nuw nsw i64 %46, 1
  %81 = load i32, i32* %1, align 4, !tbaa !5
  %82 = sext i32 %81 to i64
  %83 = icmp slt i64 %80, %82
  br i1 %83, label %45, label %84, !llvm.loop !19

84:                                               ; preds = %79, %0, %14
  call void @llvm.lifetime.end.p0i8(i64 4000, i8* nonnull %10) #5
  call void @llvm.lifetime.end.p0i8(i64 8, i8* nonnull %9) #5
  call void @llvm.lifetime.end.p0i8(i64 8, i8* nonnull %8) #5
  call void @llvm.lifetime.end.p0i8(i64 8, i8* nonnull %7) #5
  call void @llvm.lifetime.end.p0i8(i64 4, i8* nonnull %6) #5
  ret i32 0
}

; Function Attrs: argmemonly mustprogress nofree nosync nounwind willreturn
declare void @llvm.lifetime.start.p0i8(i64 immarg, i8* nocapture) #1

; Function Attrs: nofree nounwind
declare noundef i32 @__isoc99_scanf(i8* nocapture noundef readonly, ...) local_unnamed_addr #2

; Function Attrs: mustprogress nofree nounwind willreturn
declare double @sqrt(double) local_unnamed_addr #3

; Function Attrs: mustprogress nofree nosync nounwind readnone speculatable willreturn
declare double @llvm.fabs.f64(double) #4

; Function Attrs: nofree nounwind
declare noundef i32 @printf(i8* nocapture noundef readonly, ...) local_unnamed_addr #2

; Function Attrs: argmemonly mustprogress nofree nosync nounwind willreturn
declare void @llvm.lifetime.end.p0i8(i64 immarg, i8* nocapture) #1


!llvm.module.flags = !{!0, !1, !2, !3}
!llvm.ident = !{!4}

!0 = !{i32 1, !"wchar_size", i32 4}
!1 = !{i32 7, !"PIC Level", i32 2}
!2 = !{i32 7, !"PIE Level", i32 2}
!3 = !{i32 7, !"uwtable", i32 1}
!4 = !{!"clang version 13.0.0"}
!5 = !{!6, !6, i64 0}
!6 = !{!"int", !7, i64 0}
!7 = !{!"omnipotent char", !8, i64 0}
!8 = !{!"Simple C/C++ TBAA"}
!9 = !{!10, !10, i64 0}
!10 = !{!"double", !7, i64 0}
!11 = !{!12, !10, i64 0}
!12 = !{!"f", !10, i64 0, !10, i64 8, !10, i64 16, !10, i64 24, !10, i64 32}
!13 = !{!12, !10, i64 8}
!14 = !{!12, !10, i64 16}
!15 = !{!12, !10, i64 24}
!16 = !{!12, !10, i64 32}
!17 = distinct !{!17, !18}
!18 = !{!"llvm.loop.mustprogress"}
!19 = distinct !{!19, !18}
